EXPORTS
	?CleanAll@CEglTestStep@@QAEXXZ @ 1 NONAME ; void CEglTestStep::CleanAll(void)
	?GetNumberOfIterations@CEglTestCommonIniSettings@@QAEHABVTDesC16@@@Z @ 2 NONAME ; int CEglTestCommonIniSettings::GetNumberOfIterations(class TDesC16 const &)
	?eglCreateImageKhrL@CTestEglSession@@QAEHHHHPAVRSgImage@@PBH@Z @ 3 NONAME ; int CTestEglSession::eglCreateImageKhrL(int, int, int, class RSgImage *, int const *)
	?SwapChannels@CTestEglSession@@QAEXAAK@Z @ 4 NONAME ; void CTestEglSession::SwapChannels(unsigned long &)
	??0TSgImageInfoOpenVgTarget@@QAE@XZ @ 5 NONAME ; TSgImageInfoOpenVgTarget::TSgImageInfoOpenVgTarget(void)
	?CreateWindowSurfaceAndMakeCurrentL@CTestEglSession@@QAEXHAAVRWindow@@HH@Z @ 6 NONAME ; void CTestEglSession::CreateWindowSurfaceAndMakeCurrentL(int, class RWindow &, int, int)
	??1TSgImageInfoOpenVgImage@@QAE@XZ @ 7 NONAME ; TSgImageInfoOpenVgImage::~TSgImageInfoOpenVgImage(void)
	?GetDisplayL@CEglTestStep@@IAEXXZ @ 8 NONAME ; void CEglTestStep::GetDisplayL(void)
	?NewL@CTestEglSession@@SAPAV1@AAVCTestExecuteLogger@@AAHH@Z @ 9 NONAME ; class CTestEglSession * CTestEglSession::NewL(class CTestExecuteLogger &, int &, int)
	?CheckImageDataL@CTestEglSession@@QAEXPAVCFbsBitmap@@@Z @ 10 NONAME ; void CTestEglSession::CheckImageDataL(class CFbsBitmap *)
	?doProcessFunctionL@CEglTestStep@@MAEXH@Z @ 11 NONAME ; void CEglTestStep::doProcessFunctionL(int)
	?CheckExpectedErrorL@CTestEglSession@@QAEXH@Z @ 12 NONAME ; void CTestEglSession::CheckExpectedErrorL(int)
	?CheckVgDrawingL@CTestEglSession@@QAEXW4VGImageFormat@@PBVCFbsBitmap@@@Z @ 13 NONAME ; void CTestEglSession::CheckVgDrawingL(enum VGImageFormat, class CFbsBitmap const *)
	?VgFormatToDisplayMode@EglTestConversion@@SA?AW4TDisplayMode@@W4VGImageFormat@@@Z @ 14 NONAME ; enum TDisplayMode EglTestConversion::VgFormatToDisplayMode(enum VGImageFormat)
	?CreateReferenceMaskedBitmapL@CTestEglSession@@QAEPAVCFbsBitmap@@W4TDisplayMode@@ABVTRgb@@PBV2@@Z @ 15 NONAME ; class CFbsBitmap * CTestEglSession::CreateReferenceMaskedBitmapL(enum TDisplayMode, class TRgb const &, class CFbsBitmap const *)
	?CreatePixmapSurfaceAndMakeCurrentAndMatchL@CTestEglSession@@QAEXABVTSize@@W4TDisplayMode@@HH@Z @ 16 NONAME ; void CTestEglSession::CreatePixmapSurfaceAndMakeCurrentAndMatchL(class TSize const &, enum TDisplayMode, int, int)
	?doTestStepPostambleL@CEglTestStep@@UAE?AW4TVerdict@@XZ @ 17 NONAME ; enum TVerdict CEglTestStep::doTestStepPostambleL(void)
	?FetchProcEglDestroyImageKhr@CTestEglSession@@QAEHXZ @ 18 NONAME ; int CTestEglSession::FetchProcEglDestroyImageKhr(void)
	??1CEglTestCommonIniSettings@@UAE@XZ @ 19 NONAME ; CEglTestCommonIniSettings::~CEglTestCommonIniSettings(void)
	?Surface@CTestEglSession@@QBEHXZ @ 20 NONAME ; int CTestEglSession::Surface(void) const
	?ConstructWindowL@CEglTestStep@@IAEXAAVRWindow@@ABVTRect@@@Z @ 21 NONAME ; void CEglTestStep::ConstructWindowL(class RWindow &, class TRect const &)
	?NativeFbsBitmap@CTestEglSession@@QAEPAVCFbsBitmap@@XZ @ 22 NONAME ; class CFbsBitmap * CTestEglSession::NativeFbsBitmap(void)
	?GetMatchType@@YA?AW4TEglConfigMatchType@@HW4TEglConfigMatchRule@@@Z @ 23 NONAME ; enum TEglConfigMatchType GetMatchType(int, enum TEglConfigMatchRule)
	?GetConfigExactMatchL@CTestEglSession@@QAEHW4TEglTestConfig@@W4TEglConfigMatchRule@@@Z @ 24 NONAME ; int CTestEglSession::GetConfigExactMatchL(enum TEglTestConfig, enum TEglConfigMatchRule)
	??0TSgImageInfoTest@@QAE@W4TUidPixelFormat@@VTSize@@@Z @ 25 NONAME ; TSgImageInfoTest::TSgImageInfoTest(enum TUidPixelFormat, class TSize)
	?InitializeL@CTestEglSession@@QAEXH@Z @ 26 NONAME ; void CTestEglSession::InitializeL(int)
	?CreateReferenceBitmapL@CTestEglSession@@QAEPAVCFbsBitmap@@W4TDisplayMode@@ABVTRgb@@@Z @ 27 NONAME ; class CFbsBitmap * CTestEglSession::CreateReferenceBitmapL(enum TDisplayMode, class TRgb const &)
	?CreatePixmapSurfaceAndMakeCurrentL@CTestEglSession@@QAEXHABVTSize@@W4TDisplayMode@@HH@Z @ 28 NONAME ; void CTestEglSession::CreatePixmapSurfaceAndMakeCurrentL(int, class TSize const &, enum TDisplayMode, int, int)
	??1TSgImageInfoOpenVgTarget@@QAE@XZ @ 29 NONAME ; TSgImageInfoOpenVgTarget::~TSgImageInfoOpenVgTarget(void)
	?CreateEglSessionL@CEglTestStep@@QAEXH@Z @ 30 NONAME ; void CEglTestStep::CreateEglSessionL(int)
	?CheckNeededExtensionL@CTestEglSession@@QAEHHABVTDesC16@@@Z @ 31 NONAME ; int CTestEglSession::CheckNeededExtensionL(int, class TDesC16 const &)
	?TryUsePixmapRSgImageL@CTestEglSession@@QAEXXZ @ 32 NONAME ; void CTestEglSession::TryUsePixmapRSgImageL(void)
	?TryUsePixmapCFbsBitmapOpenGlesL@CTestEglSession@@QAEXHABVTSize@@W4TDisplayMode@@H@Z @ 33 NONAME ; void CTestEglSession::TryUsePixmapCFbsBitmapOpenGlesL(int, class TSize const &, enum TDisplayMode, int)
	?vgCreateImageTargetKHR@CTestEglSession@@QAEKH@Z @ 34 NONAME ; unsigned long CTestEglSession::vgCreateImageTargetKHR(int)
	?DrawOpenGLesL@CTestEglSession@@QAEXXZ @ 35 NONAME ; void CTestEglSession::DrawOpenGLesL(void)
	?CreateBitmap@CTestEglSession@@QAEHPAVCFbsBitmap@@ABVTSize@@W4TDisplayMode@@@Z @ 36 NONAME ; int CTestEglSession::CreateBitmap(class CFbsBitmap *, class TSize const &, enum TDisplayMode)
	?doProcessFunctionL@CEglTestStep@@MAEXHABVTSgDrawableId@@@Z @ 37 NONAME ; void CEglTestStep::doProcessFunctionL(int, class TSgDrawableId const &)
	?PixelsMatch@CTestEglSession@@QAEHABVTRgb@@0H@Z @ 38 NONAME ; int CTestEglSession::PixelsMatch(class TRgb const &, class TRgb const &, int)
	?SetExpectedError@CTestEglSession@@QAEXH@Z @ 39 NONAME ; void CTestEglSession::SetExpectedError(int)
	?CreateReferenceBitmapL@CTestEglSession@@QAEPAVCFbsBitmap@@W4TDisplayMode@@@Z @ 40 NONAME ; class CFbsBitmap * CTestEglSession::CreateReferenceBitmapL(enum TDisplayMode)
	?VgFormatToWindowSurfaceFormat@EglTestConversion@@SA?AW4TEglTestConfig@@W4VGImageFormat@@@Z @ 41 NONAME ; enum TEglTestConfig EglTestConversion::VgFormatToWindowSurfaceFormat(enum VGImageFormat)
	??0CEglTestStep@@IAE@XZ @ 42 NONAME ; CEglTestStep::CEglTestStep(void)
	?NativeSgImage@CTestEglSession@@QAEAAVRSgImage@@XZ @ 43 NONAME ; class RSgImage & CTestEglSession::NativeSgImage(void)
	?IsACompatibleConfig@CTestEglSession@@QAEHHAAVRSgImage@@H@Z @ 44 NONAME ; int CTestEglSession::IsACompatibleConfig(int, class RSgImage &, int)
	?CheckImageDataVgL@CTestEglSession@@QAEXW4VGImageFormat@@@Z @ 45 NONAME ; void CTestEglSession::CheckImageDataVgL(enum VGImageFormat)
	?ResetSurfaceAndContextSgImageL@CTestEglSession@@QAEXXZ @ 46 NONAME ; void CTestEglSession::ResetSurfaceAndContextSgImageL(void)
	?PixelFormatToVgFormat@EglTestConversion@@SA?AW4VGImageFormat@@W4TUidPixelFormat@@@Z @ 47 NONAME ; enum VGImageFormat EglTestConversion::PixelFormatToVgFormat(enum TUidPixelFormat)
	??0TSgImageInfoOpenVgImage@@QAE@W4TUidPixelFormat@@VTSize@@@Z @ 48 NONAME ; TSgImageInfoOpenVgImage::TSgImageInfoOpenVgImage(enum TUidPixelFormat, class TSize)
	?CheckForExtensionL@CEglTestStep@@IAEHHABVTDesC16@@@Z @ 49 NONAME ; int CEglTestStep::CheckForExtensionL(int, class TDesC16 const &)
	?Rendezvous@CEglTestStep@@IAEXH@Z @ 50 NONAME ; void CEglTestStep::Rendezvous(int)
	?OpenWsSessionL@CEglTestStep@@IAEXH@Z @ 51 NONAME ; void CEglTestStep::OpenWsSessionL(int)
	?TryUsePixmapRSgImageOpenGlesL@CTestEglSession@@QAEHHABVTSgImageInfo@@W4TResourceCloseRule@1@H@Z @ 52 NONAME ; int CTestEglSession::TryUsePixmapRSgImageOpenGlesL(int, class TSgImageInfo const &, enum CTestEglSession::TResourceCloseRule, int)
	?eglCreateImageKhrL@CTestEglSession@@QAEHHHHAAVCFbsBitmap@@PBH@Z @ 53 NONAME ; int CTestEglSession::eglCreateImageKhrL(int, int, int, class CFbsBitmap &, int const *)
	?VgFormatToSgPixelFormat@EglTestConversion@@SA?AW4TUidPixelFormat@@W4VGImageFormat@@@Z @ 54 NONAME ; enum TUidPixelFormat EglTestConversion::VgFormatToSgPixelFormat(enum VGImageFormat)
	?NewLC@CEglTestCommonIniSettings@@SAPAV1@XZ @ 55 NONAME ; class CEglTestCommonIniSettings * CEglTestCommonIniSettings::NewLC(void)
	?doThreadFunctionL@CEglTestStep@@MAEXH@Z @ 56 NONAME ; void CEglTestStep::doThreadFunctionL(int)
	?TerminateDisplayL@CTestEglSession@@QAEXXZ @ 57 NONAME ; void CTestEglSession::TerminateDisplayL(void)
	?PrintVGImageFormat@CEglTestStep@@IAEXW4VGImageFormat@@@Z @ 58 NONAME ; void CEglTestStep::PrintVGImageFormat(enum VGImageFormat)
	?ConvertColor@CTestEglSession@@SAXABVTRgb@@PAM@Z @ 59 NONAME ; void CTestEglSession::ConvertColor(class TRgb const &, float *)
	?DrawOpenVgL@CTestEglSession@@QAEXXZ @ 60 NONAME ; void CTestEglSession::DrawOpenVgL(void)
	?doThreadFunctionL@CEglTestStep@@MAEXHABVTSgDrawableId@@@Z @ 61 NONAME ; void CEglTestStep::doThreadFunctionL(int, class TSgDrawableId const &)
	?CloseFbsSession@CTestEglSession@@QAEXXZ @ 62 NONAME ; void CTestEglSession::CloseFbsSession(void)
	?GetImageSize@CEglTestCommonIniSettings@@QAE?AVTSize@@ABVTDesC16@@@Z @ 63 NONAME ; class TSize CEglTestCommonIniSettings::GetImageSize(class TDesC16 const &)
	?PrintUsedPixelConfiguration@CEglTestStep@@IAEXXZ @ 64 NONAME ; void CEglTestStep::PrintUsedPixelConfiguration(void)
	?NewLC@CTestEglSession@@SAPAV1@AAVCTestExecuteLogger@@AAHH@Z @ 65 NONAME ; class CTestEglSession * CTestEglSession::NewLC(class CTestExecuteLogger &, int &, int)
	?GetPixelFormatFromEglConfigL@CTestEglSession@@QAEPBVTMapEglConfigToPixelFormat@@H@Z @ 66 NONAME ; class TMapEglConfigToPixelFormat const * CTestEglSession::GetPixelFormatFromEglConfigL(int)
	?TryUsePixmapCFbsBitmapOpenVgL@CTestEglSession@@QAEXHABVTSize@@W4TDisplayMode@@@Z @ 67 NONAME ; void CTestEglSession::TryUsePixmapCFbsBitmapOpenVgL(int, class TSize const &, enum TDisplayMode)
	?CreatePixmapSurfaceAndMakeCurrentAndMatchL@CTestEglSession@@QAEXABVTSgImageInfo@@W4TResourceCloseRule@1@HH@Z @ 68 NONAME ; void CTestEglSession::CreatePixmapSurfaceAndMakeCurrentAndMatchL(class TSgImageInfo const &, enum CTestEglSession::TResourceCloseRule, int, int)
	?BytePerPixel@EglTestConversion@@SAHW4TUidPixelFormat@@@Z @ 69 NONAME ; int EglTestConversion::BytePerPixel(enum TUidPixelFormat)
	?CheckImageDataGLesL@CTestEglSession@@QAEXXZ @ 70 NONAME ; void CTestEglSession::CheckImageDataGLesL(void)
	?CreatePixmapSurfaceAndMakeCurrentL@CTestEglSession@@QAEXHABVTSgImageInfo@@W4TResourceCloseRule@1@HH@Z @ 71 NONAME ; void CTestEglSession::CreatePixmapSurfaceAndMakeCurrentL(int, class TSgImageInfo const &, enum CTestEglSession::TResourceCloseRule, int, int)
	?VgFormatToPBufferSurfaceFormat@EglTestConversion@@SA?AW4TEglTestConfig@@W4VGImageFormat@@@Z @ 72 NONAME ; enum TEglTestConfig EglTestConversion::VgFormatToPBufferSurfaceFormat(enum VGImageFormat)
	?TryUsePixmapRSgImageOpenVgL@CTestEglSession@@QAEHHABVTSgImageInfo@@W4TResourceCloseRule@1@@Z @ 73 NONAME ; int CTestEglSession::TryUsePixmapRSgImageOpenVgL(int, class TSgImageInfo const &, enum CTestEglSession::TResourceCloseRule)
	?CloseWsSession@CEglTestStep@@IAEXXZ @ 74 NONAME ; void CEglTestStep::CloseWsSession(void)
	??0TSgImageInfoTest@@QAE@XZ @ 75 NONAME ; TSgImageInfoTest::TSgImageInfoTest(void)
	??1CEglTestStep@@UAE@XZ @ 76 NONAME ; CEglTestStep::~CEglTestStep(void)
	?Test_MultiThreadL@CEglTestStep@@IAEXHH@Z @ 77 NONAME ; void CEglTestStep::Test_MultiThreadL(int, int)
	?PartialInitialiseL@CEglTestStep@@QAEXABVTDesC16@@@Z @ 78 NONAME ; void CEglTestStep::PartialInitialiseL(class TDesC16 const &)
	?CreatePbufferSurfaceAndMakeCurrentL@CTestEglSession@@QAEXHABVTSize@@HH@Z @ 79 NONAME ; void CTestEglSession::CreatePbufferSurfaceAndMakeCurrentL(int, class TSize const &, int, int)
	?Test_MultiProcessL@CEglTestStep@@IAEXABVTDesC16@@H0ABV?$RArray@VTSgDrawableId@@@@@Z @ 80 NONAME ; void CEglTestStep::Test_MultiProcessL(class TDesC16 const &, int, class TDesC16 const &, class RArray<class TSgDrawableId> const &)
	?IsOpenVGSupported@CTestEglSession@@QAEHXZ @ 81 NONAME ; int CTestEglSession::IsOpenVGSupported(void)
	?NewL@CEglTestCommonIniSettings@@SAPAV1@XZ @ 82 NONAME ; class CEglTestCommonIniSettings * CEglTestCommonIniSettings::NewL(void)
	?PrintPixelFormat@CEglTestStep@@IAEXW4TUidPixelFormat@@@Z @ 83 NONAME ; void CEglTestStep::PrintPixelFormat(enum TUidPixelFormat)
	?CheckExpectedError@CTestEglSession@@QAEHH@Z @ 84 NONAME ; int CTestEglSession::CheckExpectedError(int)
	?GetVgFormat@CEglTestCommonIniSettings@@QAE?AW4VGImageFormat@@ABVTDesC16@@H@Z @ 85 NONAME ; enum VGImageFormat CEglTestCommonIniSettings::GetVgFormat(class TDesC16 const &, int)
	?CleanupSurfaceFbsBitmapL@CTestEglSession@@QAEXXZ @ 86 NONAME ; void CTestEglSession::CleanupSurfaceFbsBitmapL(void)
	?CloseSgDriver@CTestEglSession@@QAEXXZ @ 87 NONAME ; void CTestEglSession::CloseSgDriver(void)
	?doTestStepPreambleL@CEglTestStep@@UAE?AW4TVerdict@@XZ @ 88 NONAME ; enum TVerdict CEglTestStep::doTestStepPreambleL(void)
	??0CTestEglSession@@IAE@AAVCTestExecuteLogger@@AAHH@Z @ 89 NONAME ; CTestEglSession::CTestEglSession(class CTestExecuteLogger &, int &, int)
	?GetPixelFormat@CEglTestCommonIniSettings@@QAE?AW4TUidPixelFormat@@ABVTDesC16@@H@Z @ 90 NONAME ; enum TUidPixelFormat CEglTestCommonIniSettings::GetPixelFormat(class TDesC16 const &, int)
	?ViewConfigsL@CTestEglSession@@QAEXXZ @ 91 NONAME ; void CTestEglSession::ViewConfigsL(void)
	?CleanupSurfaceAndContextL@CTestEglSession@@QAEXXZ @ 92 NONAME ; void CTestEglSession::CleanupSurfaceAndContextL(void)
	?TerminateDisplayL@CEglTestStep@@IAEXXZ @ 93 NONAME ; void CEglTestStep::TerminateDisplayL(void)
	?OpenFbsSessionL@CTestEglSession@@QAEXXZ @ 94 NONAME ; void CTestEglSession::OpenFbsSessionL(void)
	??0TSgImageInfoOpenVgImage@@QAE@XZ @ 95 NONAME ; TSgImageInfoOpenVgImage::TSgImageInfoOpenVgImage(void)
	??0TSgImageInfoOpenVgTarget@@QAE@W4TUidPixelFormat@@VTSize@@@Z @ 96 NONAME ; TSgImageInfoOpenVgTarget::TSgImageInfoOpenVgTarget(enum TUidPixelFormat, class TSize)
	?TryUsePixmapCFbsBitmapL@CTestEglSession@@QAEXXZ @ 97 NONAME ; void CTestEglSession::TryUsePixmapCFbsBitmapL(void)
	?CongfigSupportsOpenVgL@CTestEglSession@@QAEHH@Z @ 98 NONAME ; int CTestEglSession::CongfigSupportsOpenVgL(int)
	??1TSgImageInfoTest@@QAE@XZ @ 99 NONAME ; TSgImageInfoTest::~TSgImageInfoTest(void)
	?IsOpenGLES2Supported@CTestEglSession@@QAEHXZ @ 100 NONAME ; int CTestEglSession::IsOpenGLES2Supported(void)
	?CheckImageDataFullRedishL@CTestEglSession@@QAEXPAVCFbsBitmap@@@Z @ 101 NONAME ; void CTestEglSession::CheckImageDataFullRedishL(class CFbsBitmap *)
	?CleanupSurfaceSgImageL@CTestEglSession@@QAEXXZ @ 102 NONAME ; void CTestEglSession::CleanupSurfaceSgImageL(void)
	?IsOpenGLESSupported@CTestEglSession@@QAEHXZ @ 103 NONAME ; int CTestEglSession::IsOpenGLESSupported(void)
	??1CTestEglSession@@UAE@XZ @ 104 NONAME ; CTestEglSession::~CTestEglSession(void)
	?Test_MultiThread_WaitL@CEglTestStep@@IAEXHW4TStatusId@TThreadStatus@1@@Z @ 105 NONAME ; void CEglTestStep::Test_MultiThread_WaitL(int, enum CEglTestStep::TThreadStatus::TStatusId)
	?CreateReferenceBitmapL@CTestEglSession@@QAEPAVCFbsBitmap@@W4TDisplayMode@@ABVTSize@@H@Z @ 106 NONAME ; class CFbsBitmap * CTestEglSession::CreateReferenceBitmapL(enum TDisplayMode, class TSize const &, int)
	?OpenSgDriverL@CTestEglSession@@QAEXXZ @ 107 NONAME ; void CTestEglSession::OpenSgDriverL(void)
	?FetchProcvgCreateImageTargetKhr@CTestEglSession@@QAEHXZ @ 108 NONAME ; int CTestEglSession::FetchProcvgCreateImageTargetKhr(void)
	?DestroyEGLImage@CTestEglSession@@QAEHHH@Z @ 109 NONAME ; int CTestEglSession::DestroyEGLImage(int, int)
	?Context@CTestEglSession@@QBEHXZ @ 110 NONAME ; int CTestEglSession::Context(void) const
	?VgFormatToPixmapSgSurfaceFormat@EglTestConversion@@SA?AW4TEglTestConfig@@W4VGImageFormat@@@Z @ 111 NONAME ; enum TEglTestConfig EglTestConversion::VgFormatToPixmapSgSurfaceFormat(enum VGImageFormat)
	?Test_MultiProcessL@CEglTestStep@@IAEXABVTDesC16@@H0@Z @ 112 NONAME ; void CEglTestStep::Test_MultiProcessL(class TDesC16 const &, int, class TDesC16 const &)
	?FetchProcEglCreateImageKhr@CTestEglSession@@QAEHXZ @ 113 NONAME ; int CTestEglSession::FetchProcEglCreateImageKhr(void)
	?ResetExpectedError@CTestEglSession@@QAEXXZ @ 114 NONAME ; void CTestEglSession::ResetExpectedError(void)
	?GetNumberOfFormats@CEglTestCommonIniSettings@@QAEHABVTDesC16@@@Z @ 115 NONAME ; int CEglTestCommonIniSettings::GetNumberOfFormats(class TDesC16 const &)
	?Test_MultiProcessL@CEglTestStep@@IAEXABVTDesC16@@H0ABVTSgDrawableId@@@Z @ 116 NONAME ; void CEglTestStep::Test_MultiProcessL(class TDesC16 const &, int, class TDesC16 const &, class TSgDrawableId const &)
	?PixelFormatToDisplayMode@EglTestConversion@@SA?AW4TDisplayMode@@W4TUidPixelFormat@@@Z @ 117 NONAME ; enum TDisplayMode EglTestConversion::PixelFormatToDisplayMode(enum TUidPixelFormat)

